target datalayout = "e-m:e-p270:32:32-p271:32:32-p272:64:64-i64:64-i128:128-f80:128-n8:16:32:64-S128"
target triple = "x86_64-pc-linux-gnu"

%struct.parameters_ = type { i32, i32, i64, i64, i64, i32, i32, [32 x i64], [32 x i64], [32 x i64], [32 x i32], i64, i64, i32, i32, i32, i32, i64, i64 }
%struct.anon = type { [7 x [1024 x i8]] }

@H5_libinit_g = external global i8, align 1
@H5_libterm_g = external global i8, align 1
@H5P_CLS_FILE_ACCESS_ID_g = external global i64, align 8
@.str.13 = private unnamed_addr constant [6 x i8] c"-m.h5\00", align 1
@.str.14 = private unnamed_addr constant [6 x i8] c"-r.h5\00", align 1
@.str.15 = private unnamed_addr constant [10 x i8] c"%%s-%c.h5\00", align 1
@multi_letters = internal global ptr @.str.50, align 8

; Function Attrs: nounwind uwtable
define dso_local i64 @set_vfd(ptr noundef %0) #0 {
  %2 = alloca i64, align 8
  %3 = alloca ptr, align 8
  %4 = alloca i64, align 8
  %5 = alloca i32, align 4
  %6 = alloca i32, align 4
  %7 = alloca [7 x i32], align 16
  %8 = alloca [7 x i64], align 16
  %9 = alloca [7 x ptr], align 16
  %10 = alloca [7 x i64], align 16
  %11 = alloca i32, align 4
  %12 = alloca ptr, align 8
  %13 = alloca i64, align 8
  store ptr %0, ptr %3, align 8, !tbaa !28
  call void @llvm.lifetime.start.p0(i64 8, ptr %4) #10
  store i64 -1, ptr %4, align 8, !tbaa !22
  call void @llvm.lifetime.start.p0(i64 4, ptr %5) #10
  %14 = load ptr, ptr %3, align 8, !tbaa !28
  %15 = getelementptr inbounds nuw %struct.parameters_, ptr %14, i32 0, i32 1
  %16 = load i32, ptr %15, align 4, !tbaa !30
  store i32 %16, ptr %5, align 4, !tbaa !11
  %17 = load i8, ptr @H5_libinit_g, align 1, !tbaa !35, !range !37, !noundef !38
  %18 = trunc i8 %17 to i1
  br i1 %18, label %23, label %19

19:                                               ; preds = %1
  %20 = load i8, ptr @H5_libterm_g, align 1, !tbaa !35, !range !37, !noundef !38
  %21 = trunc i8 %20 to i1
  %22 = xor i1 %21, true
  br label %23

23:                                               ; preds = %19, %1
  %24 = phi i1 [ false, %1 ], [ %22, %19 ]
  %25 = xor i1 %24, true
  %26 = xor i1 %25, true
  %27 = zext i1 %26 to i32
  %28 = sext i32 %27 to i64
  %29 = call i64 @llvm.expect.i64(i64 %28, i64 0)
  %30 = icmp ne i64 %29, 0
  br i1 %30, label %31, label %33

31:                                               ; preds = %23
  %32 = call i32 @H5open()
  br label %34

33:                                               ; preds = %23
  br label %34

34:                                               ; preds = %33, %31
  %35 = load i64, ptr @H5P_CLS_FILE_ACCESS_ID_g, align 8, !tbaa !22
  %36 = call i64 @H5Pcreate(i64 noundef %35)
  store i64 %36, ptr %4, align 8, !tbaa !22
  %37 = icmp slt i64 %36, 0
  br i1 %37, label %38, label %39

38:                                               ; preds = %34
  store i64 -1, ptr %2, align 8
  store i32 1, ptr %6, align 4
  br label %174

39:                                               ; preds = %34
  %40 = load i32, ptr %5, align 4, !tbaa !11
  %41 = icmp eq i32 %40, 0
  br i1 %41, label %42, label %48

42:                                               ; preds = %39
  %43 = load i64, ptr %4, align 8, !tbaa !22
  %44 = call i32 @H5Pset_fapl_sec2(i64 noundef %43)
  %45 = icmp slt i32 %44, 0
  br i1 %45, label %46, label %47

46:                                               ; preds = %42
  store i64 -1, ptr %2, align 8
  store i32 1, ptr %6, align 4
  br label %174

47:                                               ; preds = %42
  br label %172

48:                                               ; preds = %39
  %49 = load i32, ptr %5, align 4, !tbaa !11
  %50 = icmp eq i32 %49, 1
  br i1 %50, label %51, label %57

51:                                               ; preds = %48
  %52 = load i64, ptr %4, align 8, !tbaa !22
  %53 = call i32 @H5Pset_fapl_stdio(i64 noundef %52)
  %54 = icmp slt i32 %53, 0
  br i1 %54, label %55, label %56

55:                                               ; preds = %51
  store i64 -1, ptr %2, align 8
  store i32 1, ptr %6, align 4
  br label %174

56:                                               ; preds = %51
  br label %171

57:                                               ; preds = %48
  %58 = load i32, ptr %5, align 4, !tbaa !11
  %59 = icmp eq i32 %58, 2
  br i1 %59, label %60, label %66

60:                                               ; preds = %57
  %61 = load i64, ptr %4, align 8, !tbaa !22
  %62 = call i32 @H5Pset_fapl_core(i64 noundef %61, i64 noundef 1048576, i1 noundef zeroext true)
  %63 = icmp slt i32 %62, 0
  br i1 %63, label %64, label %65

64:                                               ; preds = %60
  store i64 -1, ptr %2, align 8
  store i32 1, ptr %6, align 4
  br label %174

65:                                               ; preds = %60
  br label %170

66:                                               ; preds = %57
  %67 = load i32, ptr %5, align 4, !tbaa !11
  %68 = icmp eq i32 %67, 3
  br i1 %68, label %69, label %75

69:                                               ; preds = %66
  %70 = load i64, ptr %4, align 8, !tbaa !22
  %71 = call i32 @H5Pset_fapl_split(i64 noundef %70, ptr noundef @.str.13, i64 noundef 0, ptr noundef @.str.14, i64 noundef 0)
  %72 = icmp slt i32 %71, 0
  br i1 %72, label %73, label %74

73:                                               ; preds = %69
  store i64 -1, ptr %2, align 8
  store i32 1, ptr %6, align 4
  br label %174

74:                                               ; preds = %69
  br label %169

75:                                               ; preds = %66
  %76 = load i32, ptr %5, align 4, !tbaa !11
  %77 = icmp eq i32 %76, 4
  br i1 %77, label %78, label %148

78:                                               ; preds = %75
  call void @llvm.lifetime.start.p0(i64 28, ptr %7) #10
  call void @llvm.lifetime.start.p0(i64 56, ptr %8) #10
  call void @llvm.lifetime.start.p0(i64 56, ptr %9) #10
  call void @llvm.lifetime.start.p0(i64 56, ptr %10) #10
  call void @llvm.lifetime.start.p0(i64 4, ptr %11) #10
  call void @llvm.lifetime.start.p0(i64 8, ptr %12) #10
  store ptr null, ptr %12, align 8, !tbaa !34
  %79 = getelementptr inbounds [7 x i32], ptr %7, i64 0, i64 0
  call void @llvm.memset.p0.i64(ptr align 16 %79, i8 0, i64 28, i1 false)
  %80 = getelementptr inbounds [7 x i64], ptr %8, i64 0, i64 0
  call void @llvm.memset.p0.i64(ptr align 16 %80, i8 0, i64 56, i1 false)
  %81 = getelementptr inbounds [7 x ptr], ptr %9, i64 0, i64 0
  call void @llvm.memset.p0.i64(ptr align 16 %81, i8 0, i64 56, i1 false)
  %82 = getelementptr inbounds [7 x i64], ptr %10, i64 0, i64 0
  call void @llvm.memset.p0.i64(ptr align 16 %82, i8 0, i64 56, i1 false)
  %83 = call noalias ptr @calloc(i64 noundef 1, i64 noundef 7168) #11
  store ptr %83, ptr %12, align 8, !tbaa !34
  %84 = icmp eq ptr null, %83
  br i1 %84, label %85, label %86

85:                                               ; preds = %78
  store i64 -1, ptr %2, align 8
  store i32 1, ptr %6, align 4
  br label %145

86:                                               ; preds = %78
  store i32 0, ptr %11, align 4, !tbaa !11
  br label %87

87:                                               ; preds = %130, %86
  %88 = load i32, ptr %11, align 4, !tbaa !11
  %89 = icmp slt i32 %88, 7
  br i1 %89, label %90, label %133

90:                                               ; preds = %87
  %91 = load i32, ptr %11, align 4, !tbaa !11
  %92 = sext i32 %91 to i64
  %93 = getelementptr inbounds [7 x i64], ptr %8, i64 0, i64 %92
  store i64 0, ptr %93, align 8, !tbaa !22
  %94 = load ptr, ptr %12, align 8, !tbaa !34
  %95 = getelementptr inbounds nuw %struct.anon, ptr %94, i32 0, i32 0
  %96 = load i32, ptr %11, align 4, !tbaa !11
  %97 = sext i32 %96 to i64
  %98 = getelementptr inbounds [7 x [1024 x i8]], ptr %95, i64 0, i64 %97
  %99 = getelementptr inbounds [1024 x i8], ptr %98, i64 0, i64 0
  %100 = load ptr, ptr @multi_letters, align 8, !tbaa !9
  %101 = load i32, ptr %11, align 4, !tbaa !11
  %102 = sext i32 %101 to i64
  %103 = getelementptr inbounds i8, ptr %100, i64 %102
  %104 = load i8, ptr %103, align 1, !tbaa !16
  %105 = sext i8 %104 to i32
  %106 = call i32 (ptr, i64, ptr, ...) @snprintf(ptr noundef %99, i64 noundef 1024, ptr noundef @.str.15, i32 noundef %105) #10
  %107 = load ptr, ptr %12, align 8, !tbaa !34
  %108 = getelementptr inbounds nuw %struct.anon, ptr %107, i32 0, i32 0
  %109 = load i32, ptr %11, align 4, !tbaa !11
  %110 = sext i32 %109 to i64
  %111 = getelementptr inbounds [7 x [1024 x i8]], ptr %108, i64 0, i64 %110
  %112 = getelementptr inbounds [1024 x i8], ptr %111, i64 0, i64 0
  %113 = load i32, ptr %11, align 4, !tbaa !11
  %114 = sext i32 %113 to i64
  %115 = getelementptr inbounds [7 x ptr], ptr %9, i64 0, i64 %114
  store ptr %112, ptr %115, align 8, !tbaa !9
  %116 = load i32, ptr %11, align 4, !tbaa !11
  %117 = sub nsw i32 %116, 1
  %118 = icmp sgt i32 %117, 0
  br i1 %118, label %119, label %122

119:                                              ; preds = %90
  %120 = load i32, ptr %11, align 4, !tbaa !11
  %121 = sub nsw i32 %120, 1
  br label %123

122:                                              ; preds = %90
  br label %123

123:                                              ; preds = %122, %119
  %124 = phi i32 [ %121, %119 ], [ 0, %122 ]
  %125 = sext i32 %124 to i64
  %126 = mul i64 %125, 1844674407370955161
  %127 = load i32, ptr %11, align 4, !tbaa !11
  %128 = sext i32 %127 to i64
  %129 = getelementptr inbounds [7 x i64], ptr %10, i64 0, i64 %128
  store i64 %126, ptr %129, align 8, !tbaa !22
  br label %130

130:                                              ; preds = %123
  %131 = load i32, ptr %11, align 4, !tbaa !11
  %132 = add nsw i32 %131, 1
  store i32 %132, ptr %11, align 4, !tbaa !11
  br label %87, !llvm.loop !55

133:                                              ; preds = %87
  %134 = load i64, ptr %4, align 8, !tbaa !22
  %135 = getelementptr inbounds [7 x i32], ptr %7, i64 0, i64 0
  %136 = getelementptr inbounds [7 x i64], ptr %8, i64 0, i64 0
  %137 = getelementptr inbounds [7 x ptr], ptr %9, i64 0, i64 0
  %138 = getelementptr inbounds [7 x i64], ptr %10, i64 0, i64 0
  %139 = call i32 @H5Pset_fapl_multi(i64 noundef %134, ptr noundef %135, ptr noundef %136, ptr noundef %137, ptr noundef %138, i1 noundef zeroext false)
  %140 = icmp slt i32 %139, 0
  br i1 %140, label %141, label %143

141:                                              ; preds = %133
  %142 = load ptr, ptr %12, align 8, !tbaa !34
  call void @free(ptr noundef %142) #10
  store i64 -1, ptr %2, align 8
  store i32 1, ptr %6, align 4
  br label %145

143:                                              ; preds = %133
  %144 = load ptr, ptr %12, align 8, !tbaa !34
  call void @free(ptr noundef %144) #10
  store i32 0, ptr %6, align 4
  br label %145

145:                                              ; preds = %143, %141, %85
  call void @llvm.lifetime.end.p0(i64 8, ptr %12) #10
  call void @llvm.lifetime.end.p0(i64 4, ptr %11) #10
  call void @llvm.lifetime.end.p0(i64 56, ptr %10) #10
  call void @llvm.lifetime.end.p0(i64 56, ptr %9) #10
  call void @llvm.lifetime.end.p0(i64 56, ptr %8) #10
  call void @llvm.lifetime.end.p0(i64 28, ptr %7) #10
  %146 = load i32, ptr %6, align 4
  switch i32 %146, label %174 [
    i32 0, label %147
  ]

147:                                              ; preds = %145
  br label %168

148:                                              ; preds = %75
  %149 = load i32, ptr %5, align 4, !tbaa !11
  %150 = icmp eq i32 %149, 5
  br i1 %150, label %151, label %161

151:                                              ; preds = %148
  call void @llvm.lifetime.start.p0(i64 8, ptr %13) #10
  store i64 1048576, ptr %13, align 8, !tbaa !22
  %152 = load i64, ptr %4, align 8, !tbaa !22
  %153 = load i64, ptr %13, align 8, !tbaa !22
  %154 = call i32 @H5Pset_fapl_family(i64 noundef %152, i64 noundef %153, i64 noundef 0)
  %155 = icmp slt i32 %154, 0
  br i1 %155, label %156, label %157

156:                                              ; preds = %151
  store i64 -1, ptr %2, align 8
  store i32 1, ptr %6, align 4
  br label %158

157:                                              ; preds = %151
  store i32 0, ptr %6, align 4
  br label %158

158:                                              ; preds = %157, %156
  call void @llvm.lifetime.end.p0(i64 8, ptr %13) #10
  %159 = load i32, ptr %6, align 4
  switch i32 %159, label %174 [
    i32 0, label %160
  ]

160:                                              ; preds = %158
  br label %167

161:                                              ; preds = %148
  %162 = load i32, ptr %5, align 4, !tbaa !11
  %163 = icmp eq i32 %162, 6
  br i1 %163, label %164, label %165

164:                                              ; preds = %161
  br label %166

165:                                              ; preds = %161
  store i64 -1, ptr %2, align 8
  store i32 1, ptr %6, align 4
  br label %174

166:                                              ; preds = %164
  br label %167

167:                                              ; preds = %166, %160
  br label %168

168:                                              ; preds = %167, %147
  br label %169

169:                                              ; preds = %168, %74
  br label %170

170:                                              ; preds = %169, %65
  br label %171

171:                                              ; preds = %170, %56
  br label %172

172:                                              ; preds = %171, %47
  %173 = load i64, ptr %4, align 8, !tbaa !22
  store i64 %173, ptr %2, align 8
  store i32 1, ptr %6, align 4
  br label %174

174:                                              ; preds = %172, %165, %158, %145, %73, %64, %55, %46, %38
  call void @llvm.lifetime.end.p0(i64 4, ptr %5) #10
  call void @llvm.lifetime.end.p0(i64 8, ptr %4) #10
  %175 = load i64, ptr %2, align 8
  ret i64 %175
}