; Function Attrs: nounwind uwtable
define dso_local range(i64 -1, -9223372036854775808) i64 @set_vfd(ptr noundef readonly captures(none) %0) local_unnamed_addr #0 {
  %2 = alloca [7 x i32], align 16
  %3 = alloca [7 x i64], align 16
  %4 = alloca [7 x ptr], align 16
  %5 = alloca [7 x i64], align 16
  %6 = getelementptr inbounds nuw i8, ptr %0, i64 4
  %7 = load i32, ptr %6, align 4, !tbaa !22
  %8 = load i8, ptr @H5_libinit_g, align 1, !tbaa !33, !range !35, !noundef !36
  %9 = trunc nuw i8 %8 to i1
  %10 = load i8, ptr @H5_libterm_g, align 1, !range !35
  %11 = trunc nuw i8 %10 to i1
  %12 = select i1 %9, i1 true, i1 %11
  br i1 %12, label %15, label %13, !prof !37

13:                                               ; preds = %1
  %14 = tail call i32 @H5open() #17
  br label %15

15:                                               ; preds = %1, %13
  %16 = load i64, ptr @H5P_CLS_FILE_ACCESS_ID_g, align 8, !tbaa !17
  %17 = tail call i64 @H5Pcreate(i64 noundef %16) #17
  %18 = icmp slt i64 %17, 0
  br i1 %18, label %54, label %19

19:                                               ; preds = %15
  switch i32 %7, label %54 [
    i32 0, label %20
    i32 1, label %23
    i32 2, label %26
    i32 3, label %29
    i32 4, label %32
    i32 5, label %50
    i32 6, label %53
  ]

20:                                               ; preds = %19
  %21 = tail call i32 @H5Pset_fapl_sec2(i64 noundef %17) #17
  %22 = icmp slt i32 %21, 0
  br i1 %22, label %54, label %53

23:                                               ; preds = %19
  %24 = tail call i32 @H5Pset_fapl_stdio(i64 noundef %17) #17
  %25 = icmp slt i32 %24, 0
  br i1 %25, label %54, label %53

26:                                               ; preds = %19
  %27 = tail call i32 @H5Pset_fapl_core(i64 noundef %17, i64 noundef 1048576, i1 noundef zeroext true) #17
  %28 = icmp slt i32 %27, 0
  br i1 %28, label %54, label %53

29:                                               ; preds = %19
  %30 = tail call i32 @H5Pset_fapl_split(i64 noundef %17, ptr noundef nonnull @.str.13, i64 noundef 0, ptr noundef nonnull @.str.14, i64 noundef 0) #17
  %31 = icmp slt i32 %30, 0
  br i1 %31, label %54, label %53

32:                                               ; preds = %19
  call void @llvm.lifetime.start.p0(i64 28, ptr nonnull %2) #17
  call void @llvm.lifetime.start.p0(i64 56, ptr nonnull %3) #17
  call void @llvm.lifetime.start.p0(i64 56, ptr nonnull %4) #17
  call void @llvm.lifetime.start.p0(i64 56, ptr nonnull %5) #17
  call void @llvm.memset.p0.i64(ptr noundef nonnull align 16 dereferenceable(28) %2, i8 0, i64 28, i1 false)
  call void @llvm.memset.p0.i64(ptr noundef nonnull align 16 dereferenceable(56) %3, i8 0, i64 56, i1 false)
  call void @llvm.memset.p0.i64(ptr noundef nonnull align 16 dereferenceable(56) %4, i8 0, i64 56, i1 false)
  call void @llvm.memset.p0.i64(ptr noundef nonnull align 16 dereferenceable(56) %5, i8 0, i64 56, i1 false)
  %33 = tail call noalias dereferenceable_or_null(7168) ptr @calloc(i64 noundef 1, i64 noundef 7168) #19
  %34 = icmp eq ptr %33, null
  br i1 %34, label %.critedge, label %.preheader

.preheader:                                       ; preds = %32, %.preheader
  %indvars.iv = phi i64 [ %indvars.iv.next, %.preheader ], [ 0, %32 ]
  %35 = getelementptr inbounds nuw [7 x i64], ptr %3, i64 0, i64 %indvars.iv
  store i64 0, ptr %35, align 8, !tbaa !17
  %36 = getelementptr inbounds nuw [7 x [1024 x i8]], ptr %33, i64 0, i64 %indvars.iv
  %37 = getelementptr inbounds nuw i8, ptr @.str.50, i64 %indvars.iv
  %38 = load i8, ptr %37, align 1, !tbaa !10
  %39 = sext i8 %38 to i32
  %40 = tail call i32 (ptr, i64, ptr, ...) @snprintf(ptr noundef nonnull dereferenceable(1) %36, i64 noundef 1024, ptr noundef nonnull @.str.15, i32 noundef %39) #17
  %41 = getelementptr inbounds nuw [7 x ptr], ptr %4, i64 0, i64 %indvars.iv
  store ptr %36, ptr %41, align 8, !tbaa !26
  %42 = trunc nuw nsw i64 %indvars.iv to i32
  %43 = tail call i32 @llvm.usub.sat.i32(i32 %42, i32 1)
  %44 = zext nneg i32 %43 to i64
  %45 = mul nuw nsw i64 %44, 1844674407370955161
  %46 = getelementptr inbounds nuw [7 x i64], ptr %5, i64 0, i64 %indvars.iv
  store i64 %45, ptr %46, align 8, !tbaa !17
  %indvars.iv.next = add nuw nsw i64 %indvars.iv, 1
  %exitcond.not = icmp eq i64 %indvars.iv.next, 7
  br i1 %exitcond.not, label %47, label %.preheader, !llvm.loop !47

47:                                               ; preds = %.preheader
  %48 = call i32 @H5Pset_fapl_multi(i64 noundef %17, ptr noundef nonnull %2, ptr noundef nonnull %3, ptr noundef nonnull %4, ptr noundef nonnull %5, i1 noundef zeroext false) #17
  %49 = icmp sgt i32 %48, -1
  call void @free(ptr noundef nonnull %33) #17
  call void @llvm.lifetime.end.p0(i64 56, ptr nonnull %5) #17
  call void @llvm.lifetime.end.p0(i64 56, ptr nonnull %4) #17
  call void @llvm.lifetime.end.p0(i64 56, ptr nonnull %3) #17
  call void @llvm.lifetime.end.p0(i64 28, ptr nonnull %2) #17
  br i1 %49, label %53, label %54

50:                                               ; preds = %19
  %51 = tail call i32 @H5Pset_fapl_family(i64 noundef %17, i64 noundef 1048576, i64 noundef 0) #17
  %52 = icmp sgt i32 %51, -1
  br i1 %52, label %53, label %54

53:                                               ; preds = %19, %23, %29, %50, %47, %26, %20
  br label %54

.critedge:                                        ; preds = %32
  call void @llvm.lifetime.end.p0(i64 56, ptr nonnull %5) #17
  call void @llvm.lifetime.end.p0(i64 56, ptr nonnull %4) #17
  call void @llvm.lifetime.end.p0(i64 56, ptr nonnull %3) #17
  call void @llvm.lifetime.end.p0(i64 28, ptr nonnull %2) #17
  br label %54

54:                                               ; preds = %19, %.critedge, %29, %26, %23, %20, %15, %47, %50, %53
  %.0 = phi i64 [ %17, %53 ], [ -1, %47 ], [ -1, %50 ], [ -1, %15 ], [ -1, %20 ], [ -1, %23 ], [ -1, %26 ], [ -1, %29 ], [ -1, %.critedge ], [ -1, %19 ]
  ret i64 %.0
}